(dp0
S'METTS MARK'
p1
(dp2
S'to_messages'
p3
I807
sS'deferral_payments'
p4
S'NaN'
p5
sS'expenses'
p6
I94299
sS'poi'
p7
I00
sS'deferred_income'
p8
g5
sS'email_address'
p9
S'mark.metts@enron.com'
p10
sS'long_term_incentive'
p11
g5
sS'from_squared'
p12
F0.0022172778768182366
sS'bonus_salary_ratio'
p13
F1.6402943781644013
sS'restricted_stock_deferred'
p14
g5
sS'from_cross_to'
p15
F0.0016237234542580009
sS'shared_receipt_with_poi'
p16
I702
sS'loan_advances'
p17
g5
sS'from_messages'
p18
I29
sS'other'
p19
I1740
sS'to_poi_ratio'
p20
F0.034482758620689655
sS'director_fees'
p21
g5
sS'bonus'
p22
I600000
sS'total_stock_value'
p23
I585062
sS'from_poi_to_this_person'
p24
I38
sS'from_this_person_to_poi'
p25
I1
sS'from_poi_ratio'
p26
F0.04708798017348203
sS'restricted_stock'
p27
I585062
sS'salary'
p28
I365788
sS'stk_pay_ratio'
p29
F0.5509955953276758
sS'total_payments'
p30
I1061827
sS'exercised_stock_options'
p31
g5
ssS'BAXTER JOHN C'
p32
(dp33
g3
g5
sg4
I1295738
sg6
I11200
sg7
I00
sg8
I-1386055
sg9
g5
sg11
I1586055
sg12
I0
sg13
F4.492665723206865
sg14
g5
sg15
I0
sg16
g5
sg17
g5
sg18
g5
sg19
I2660303
sg20
I0
sg21
g5
sg22
I1200000
sg23
I10623258
sg24
g5
sg25
g5
sg26
I0
sg27
I3942714
sg28
I267102
sg29
F1.8854475135787794
sg30
I5634343
sg31
I6680544
ssS'ELLIOTT STEVEN'
p34
(dp35
g3
g5
sg4
g5
sg6
I78552
sg7
I00
sg8
I-400729
sg9
S'steven.elliott@enron.com'
p36
sg11
g5
sg12
I0
sg13
F2.047490069673162
sg14
g5
sg15
I0
sg16
g5
sg17
g5
sg18
g5
sg19
I12961
sg20
I0
sg21
g5
sg22
I350000
sg23
I6678735
sg24
g5
sg25
g5
sg26
I0
sg27
I1788391
sg28
I170941
sg29
F31.544385405596884
sg30
I211725
sg31
I4890344
ssS'CORDES WILLIAM R'
p37
(dp38
g3
I764
sg4
g5
sg6
g5
sg7
I00
sg8
g5
sg9
S'bill.cordes@enron.com'
p39
sg11
g5
sg12
F0.00017132205805761903
sg13
I0
sg14
g5
sg15
F0.0
sg16
I58
sg17
g5
sg18
I12
sg19
g5
sg20
F0.0
sg21
g5
sg22
g5
sg23
I1038185
sg24
I10
sg25
I0
sg26
F0.013089005235602094
sg27
I386335
sg28
g5
sg29
I0
sg30
g5
sg31
I651850
ssS'HANNON KEVIN P'
p40
(dp41
g3
I1045
sg4
g5
sg6
I34039
sg7
I01
sg8
I-3117011
sg9
S'kevin.hannon@enron.com'
p42
sg11
I1617011
sg12
F0.0009377074700670772
sg13
F6.165405498719651
sg14
g5
sg15
F0.020095693779904306
sg16
I1035
sg17
g5
sg18
I32
sg19
I11350
sg20
F0.65625
sg21
g5
sg22
I1500000
sg23
I6391065
sg24
I32
sg25
I21
sg26
F0.03062200956937799
sg27
I853064
sg28
I243293
sg29
F22.13877207446256
sg30
I288682
sg31
I5538001
ssS'MORDAUNT KRISTINA M'
p43
(dp44
g3
g5
sg4
g5
sg6
I35018
sg7
I00
sg8
g5
sg9
S'kristina.mordaunt@enron.com'
p45
sg11
g5
sg12
I0
sg13
F1.2168046335920448
sg14
g5
sg15
I0
sg16
g5
sg17
g5
sg18
g5
sg19
I1411
sg20
I0
sg21
g5
sg22
I325000
sg23
I208510
sg24
g5
sg25
g5
sg26
I0
sg27
I208510
sg28
I267093
sg29
F0.33174654188715746
sg30
I628522
sg31
g5
ssS'MEYER ROCKFORD G'
p46
(dp47
g3
I232
sg4
I1848227
sg6
g5
sg7
I00
sg8
g5
sg9
S'rockford.meyer@enron.com'
p48
sg11
g5
sg12
F0.0
sg13
I0
sg14
g5
sg15
F0.0
sg16
I22
sg17
g5
sg18
I28
sg19
g5
sg20
F0.0
sg21
g5
sg22
g5
sg23
I955873
sg24
I0
sg25
I0
sg26
F0.0
sg27
I462384
sg28
g5
sg29
F0.5171837658469441
sg30
I1848227
sg31
I493489
ssS'MCMAHON JEFFREY'
p49
(dp50
g3
I2355
sg4
g5
sg6
I137108
sg7
I00
sg8
g5
sg9
S'jeffrey.mcmahon@enron.com'
p51
sg11
I694862
sg12
F0.0006065605546314703
sg13
F7.018528916339135
sg14
g5
sg15
F0.013340410474168436
sg16
I2228
sg17
g5
sg18
I48
sg19
I297353
sg20
F0.5416666666666666
sg21
g5
sg22
I2600000
sg23
I1662855
sg24
I58
sg25
I26
sg26
F0.024628450106157114
sg27
I558801
sg28
I370448
sg29
F0.4055970443227195
sg30
I4099771
sg31
I1104054
ssS'HORTON STANLEY C'
p52
(dp53
g3
I2350
sg4
I3131860
sg6
g5
sg7
I00
sg8
g5
sg9
S'stanley.horton@enron.com'
p54
sg11
g5
sg12
F0.00035056586690810325
sg13
I0
sg14
g5
sg15
F0.000261743768713688
sg16
I1074
sg17
g5
sg18
I1073
sg19
g5
sg20
F0.013979496738117428
sg21
g5
sg22
g5
sg23
I7256648
sg24
I44
sg25
I15
sg26
F0.01872340425531915
sg27
I2046079
sg28
g5
sg29
F2.3170409916152064
sg30
I3131860
sg31
I5210569
ssS'PIPER GREGORY F'
p55
(dp56
g3
I1238
sg4
I1130036
sg6
I43057
sg7
I00
sg8
I-33333
sg9
S'greg.piper@enron.com'
p57
sg11
g5
sg12
F0.0024278305986256427
sg13
F2.0295193590777862
sg14
I-409554
sg15
F0.010653626162511462
sg16
I742
sg17
g5
sg18
I222
sg19
I778
sg20
F0.21621621621621623
sg21
g5
sg22
I400000
sg23
I880290
sg24
I61
sg25
I48
sg26
F0.049273021001615507
sg27
I409554
sg28
I197091
sg29
F0.5066041139967162
sg30
I1737629
sg31
I880290
ssS'HUMPHREY GENE E'
p58
(dp59
g3
I128
sg4
I2964506
sg6
I4994
sg7
I00
sg8
g5
sg9
S'gene.humphrey@enron.com'
p60
sg11
g5
sg12
F0.006103515625
sg13
I0
sg14
g5
sg15
F0.078125
sg16
I119
sg17
g5
sg18
I17
sg19
g5
sg20
F1.0
sg21
g5
sg22
g5
sg23
I2282768
sg24
I10
sg25
I17
sg26
F0.078125
sg27
g5
sg28
I130724
sg29
F0.7363235688776036
sg30
I3100224
sg31
I2282768
ssS'UMANOFF ADAM S'
p61
(dp62
g3
I111
sg4
g5
sg6
I53122
sg7
I00
sg8
g5
sg9
S'adam.umanoff@enron.com'
p63
sg11
g5
sg12
F0.011687363038714392
sg13
F2.7331256562100426
sg14
g5
sg15
F0.0
sg16
I41
sg17
g5
sg18
I18
sg19
g5
sg20
F0.0
sg21
g5
sg22
I788750
sg23
g5
sg24
I12
sg25
I0
sg26
F0.10810810810810811
sg27
g5
sg28
I288589
sg29
I0
sg30
I1130461
sg31
g5
ssS'BLACHMAN JEREMY M'
p64
(dp65
g3
I2475
sg4
g5
sg6
I84208
sg7
I00
sg8
g5
sg9
S'jeremy.blachman@enron.com'
p66
sg11
I831809
sg12
F0.0001020304050607081
sg13
F3.419890080709406
sg14
g5
sg15
F0.001443001443001443
sg16
I2326
sg17
g5
sg18
I14
sg19
I272
sg20
F0.14285714285714285
sg21
g5
sg22
I850000
sg23
I954354
sg24
I25
sg25
I2
sg26
F0.010101010101010102
sg27
I189041
sg28
I248546
sg29
F0.4736636002451814
sg30
I2014835
sg31
I765313
ssS'SUNDE MARTIN'
p67
(dp68
g3
I2647
sg4
g5
sg6
g5
sg7
I00
sg8
g5
sg9
S'marty.sunde@enron.com'
p69
sg11
I476451
sg12
F0.00019538695537313412
sg13
F2.7185944090164127
sg14
g5
sg15
F0.004781977611198377
sg16
I2565
sg17
g5
sg18
I38
sg19
I111122
sg20
F0.34210526315789475
sg21
g5
sg22
I700000
sg23
I698920
sg24
I37
sg25
I13
sg26
F0.013978088401964487
sg27
I698920
sg28
I257486
sg29
F0.45235813001315806
sg30
I1545059
sg31
g5
ssS'GIBBS DANA R'
p70
(dp71
g3
I169
sg4
I504610
sg6
g5
sg7
I00
sg8
g5
sg9
S'dana.gibbs@enron.com'
p72
sg11
I461912
sg12
F0.0
sg13
I0
sg14
g5
sg15
F0.0
sg16
I23
sg17
g5
sg18
I12
sg19
g5
sg20
F0.0
sg21
g5
sg22
g5
sg23
I2218275
sg24
I0
sg25
I0
sg26
F0.0
sg27
g5
sg28
g5
sg29
F2.295110716569307
sg30
I966522
sg31
I2218275
ssS'LOWRY CHARLES P'
p73
(dp74
g3
g5
sg4
g5
sg6
g5
sg7
I00
sg8
g5
sg9
g5
sg11
g5
sg12
I0
sg13
I0
sg14
I-153686
sg15
I0
sg16
g5
sg17
g5
sg18
g5
sg19
g5
sg20
I0
sg21
g5
sg22
g5
sg23
I372205
sg24
g5
sg25
g5
sg26
I0
sg27
I153686
sg28
g5
sg29
I0
sg30
g5
sg31
I372205
ssS'COLWELL WESLEY'
p75
(dp76
g3
I1758
sg4
I27610
sg6
I16514
sg7
I01
sg8
I-144062
sg9
S'wes.colwell@enron.com'
p77
sg11
g5
sg12
F0.01863737492574171
sg13
F4.158839960906905
sg14
g5
sg15
F0.03754266211604096
sg16
I1132
sg17
g5
sg18
I40
sg19
I101740
sg20
F0.275
sg21
g5
sg22
I1200000
sg23
I698242
sg24
I240
sg25
I11
sg26
F0.13651877133105803
sg27
I698242
sg28
I288542
sg29
F0.4685106257347297
sg30
I1490344
sg31
g5
ssS'MULLER MARK S'
p78
(dp79
g3
I136
sg4
I842924
sg6
g5
sg7
I00
sg8
I-719000
sg9
S's..muller@enron.com'
p80
sg11
I1725545
sg12
F0.007785467128027683
sg13
F4.3710809285765375
sg14
g5
sg15
F0.0
sg16
I114
sg17
g5
sg18
I16
sg19
I947
sg20
F0.0
sg21
g5
sg22
I1100000
sg23
I1416848
sg24
I12
sg25
I0
sg26
F0.08823529411764706
sg27
I360528
sg28
I251654
sg29
F0.44247877154465703
sg30
I3202070
sg31
I1056320
ssS'JACKSON CHARLENE R'
p81
(dp82
g3
I258
sg4
g5
sg6
I10181
sg7
I00
sg8
g5
sg9
S'charlene.jackson@enron.com'
p83
sg11
g5
sg12
F0.009389459768042787
sg13
F0.8663769502145149
sg14
g5
sg15
F0.0328765227021041
sg16
I117
sg17
g5
sg18
I56
sg19
I2435
sg20
F0.3392857142857143
sg21
g5
sg22
I250000
sg23
I725735
sg24
I25
sg25
I19
sg26
F0.09689922480620156
sg27
I540672
sg28
I288558
sg29
F1.3167076095751977
sg30
I551174
sg31
I185063
ssS'WESTFAHL RICHARD K'
p84
(dp85
g3
g5
sg4
g5
sg6
I51870
sg7
I00
sg8
I-10800
sg9
S'dick.westfahl@enron.com'
p86
sg11
I256191
sg12
I0
sg13
I0
sg14
g5
sg15
I0
sg16
g5
sg17
g5
sg18
g5
sg19
I401130
sg20
I0
sg21
g5
sg22
g5
sg23
I384930
sg24
g5
sg25
g5
sg26
I0
sg27
I384930
sg28
I63744
sg29
F0.5050679997638213
sg30
I762135
sg31
g5
ssS'WALTERS GARETH W'
p87
(dp88
g3
g5
sg4
I53625
sg6
I33785
sg7
I00
sg8
g5
sg9
g5
sg11
g5
sg12
I0
sg13
I0
sg14
g5
sg15
I0
sg16
g5
sg17
g5
sg18
g5
sg19
g5
sg20
I0
sg21
g5
sg22
g5
sg23
I1030329
sg24
g5
sg25
g5
sg26
I0
sg27
g5
sg28
g5
sg29
F11.787312664454868
sg30
I87410
sg31
I1030329
ssS'WALLS JR ROBERT H'
p89
(dp90
g3
I671
sg4
g5
sg6
I50936
sg7
I00
sg8
g5
sg9
S'rob.walls@enron.com'
p91
sg11
I540751
sg12
F0.0006418784606466314
sg13
F2.380345626184922
sg14
g5
sg15
F0.0
sg16
I215
sg17
g5
sg18
I146
sg19
I2
sg20
F0.0
sg21
g5
sg22
I850000
sg23
I5898997
sg24
I17
sg25
I0
sg26
F0.02533532041728763
sg27
I1552453
sg28
I357091
sg29
F3.279443289340553
sg30
I1798780
sg31
I4346544
ssS'KITCHEN LOUISE'
p92
(dp93
g3
I8305
sg4
g5
sg6
I5774
sg7
I00
sg8
g5
sg9
S'louise.kitchen@enron.com'
p94
sg11
g5
sg12
F0.0009134150633526657
sg13
F11.420487617981005
sg14
g5
sg15
F0.0033930641960443282
sg16
I3669
sg17
g5
sg18
I1728
sg19
I93925
sg20
F0.11226851851851852
sg21
g5
sg22
I3100000
sg23
I547143
sg24
I251
sg25
I194
sg26
F0.030222757375075255
sg27
I466101
sg28
I271442
sg29
F0.15762626755870765
sg30
I3471141
sg31
I81042
ssS'CHAN RONNIE'
p95
(dp96
g3
g5
sg4
g5
sg6
g5
sg7
I00
sg8
I-98784
sg9
g5
sg11
g5
sg12
I0
sg13
I0
sg14
I-32460
sg15
I0
sg16
g5
sg17
g5
sg18
g5
sg19
g5
sg20
I0
sg21
I98784
sg22
g5
sg23
g5
sg24
g5
sg25
g5
sg26
I0
sg27
I32460
sg28
g5
sg29
I0
sg30
g5
sg31
g5
ssS'BELFER ROBERT'
p97
(dp98
g3
g5
sg4
I-102500
sg6
g5
sg7
I00
sg8
g5
sg9
g5
sg11
g5
sg12
I0
sg13
I0
sg14
I44093
sg15
I0
sg16
g5
sg17
g5
sg18
g5
sg19
g5
sg20
I0
sg21
I3285
sg22
g5
sg23
S'NaN'
p99
sg24
g5
sg25
g5
sg26
I0
sg27
g5
sg28
g5
sg29
I0
sg30
I3285
sg31
I3285
ssS'SHANKMAN JEFFREY A'
p100
(dp101
g3
I3221
sg4
g5
sg6
I178979
sg7
I00
sg8
g5
sg9
S'jeffrey.shankman@enron.com'
p102
sg11
I554422
sg12
F0.0008516757027890836
sg13
F6.576567689322943
sg14
g5
sg15
F0.0009034797170424738
sg16
I1730
sg17
g5
sg18
I2681
sg19
I1191
sg20
F0.030958597538232
sg21
g5
sg22
I2000000
sg23
I2072035
sg24
I94
sg25
I83
sg26
F0.029183483390251473
sg27
I630137
sg28
I304110
sg29
F0.6818816060278369
sg30
I3038702
sg31
I1441898
ssS'WODRASKA JOHN'
p103
(dp104
g3
g5
sg4
g5
sg6
g5
sg7
I00
sg8
g5
sg9
S'john.wodraska@enron.com'
p105
sg11
g5
sg12
I0
sg13
I0
sg14
g5
sg15
I0
sg16
g5
sg17
g5
sg18
g5
sg19
I189583
sg20
I0
sg21
g5
sg22
g5
sg23
g5
sg24
g5
sg25
g5
sg26
I0
sg27
g5
sg28
g5
sg29
I0
sg30
I189583
sg31
g5
ssS'BERGSIEKER RICHARD P'
p106
(dp107
g3
I383
sg4
g5
sg6
I59175
sg7
I00
sg8
I-485813
sg9
S'rick.bergsieker@enron.com'
p108
sg11
I180250
sg12
F0.00010907430004976515
sg13
F1.3303391832781686
sg14
g5
sg15
F0.0
sg16
I233
sg17
g5
sg18
I59
sg19
I427316
sg20
F0.0
sg21
g5
sg22
I250000
sg23
I659249
sg24
I4
sg25
I0
sg26
F0.010443864229765013
sg27
I659249
sg28
I187922
sg29
F1.0652807627050174
sg30
I618850
sg31
g5
ssS'URQUHART JOHN A'
p109
(dp110
g3
g5
sg4
g5
sg6
I228656
sg7
I00
sg8
I-36666
sg9
g5
sg11
g5
sg12
I0
sg13
I0
sg14
g5
sg15
I0
sg16
g5
sg17
g5
sg18
g5
sg19
g5
sg20
I0
sg21
I36666
sg22
g5
sg23
g5
sg24
g5
sg25
g5
sg26
I0
sg27
g5
sg28
g5
sg29
I0
sg30
I228656
sg31
g5
ssS'BIBI PHILIPPE A'
p111
(dp112
g3
I1607
sg4
g5
sg6
I38559
sg7
I00
sg8
g5
sg9
S'philippe.bibi@enron.com'
p113
sg11
I369721
sg12
F0.00020484431638340193
sg13
F4.681100058513751
sg14
g5
sg15
F0.002862476664592408
sg16
I1336
sg17
g5
sg18
I40
sg19
I425688
sg20
F0.2
sg21
g5
sg22
I1000000
sg23
I1843816
sg24
I23
sg25
I8
sg26
F0.01431238332296204
sg27
I378082
sg28
I213625
sg29
F0.9004797340096397
sg30
I2047593
sg31
I1465734
ssS'RIEKER PAULA H'
p114
(dp115
g3
I1328
sg4
I214678
sg6
I33271
sg7
I01
sg8
I-100000
sg9
S'paula.rieker@enron.com'
p116
sg11
g5
sg12
F0.0006946082522862535
sg13
F2.8089774920646384
sg14
g5
sg15
F0.015427563914193358
sg16
I1258
sg17
g5
sg18
I82
sg19
I1950
sg20
F0.5853658536585366
sg21
g5
sg22
I700000
sg23
I1918887
sg24
I35
sg25
I48
sg26
F0.02635542168674699
sg27
I283649
sg28
I249201
sg29
F1.7458711673187153
sg30
I1099100
sg31
I1635238
ssS'WHALEY DAVID A'
p117
(dp118
g3
g5
sg4
g5
sg6
g5
sg7
I00
sg8
g5
sg9
g5
sg11
g5
sg12
I0
sg13
I0
sg14
g5
sg15
I0
sg16
g5
sg17
g5
sg18
g5
sg19
g5
sg20
I0
sg21
g5
sg22
g5
sg23
I98718
sg24
g5
sg25
g5
sg26
I0
sg27
g5
sg28
g5
sg29
I0
sg30
g5
sg31
I98718
ssS'BECK SALLY W'
p119
(dp120
g3
I7315
sg4
g5
sg6
I37172
sg7
I00
sg8
g5
sg9
S'sally.beck@enron.com'
p121
sg11
g5
sg12
F0.0003875219646705778
sg13
F3.025980201443825
sg14
g5
sg15
F0.0017496276642876738
sg16
I2639
sg17
g5
sg18
I4343
sg19
I566
sg20
F0.08887865530739121
sg21
g5
sg22
I700000
sg23
I126027
sg24
I144
sg25
I386
sg26
F0.01968557758031442
sg27
I126027
sg28
I231330
sg29
F0.13004969723486898
sg30
I969068
sg31
g5
ssS'HAUG DAVID L'
p122
(dp123
g3
I573
sg4
g5
sg6
I475
sg7
I00
sg8
g5
sg9
S'david.haug@enron.com'
p124
sg11
g5
sg12
F4.8731607625278304e-05
sg13
I0
sg14
g5
sg15
F0.0025718747129604112
sg16
I471
sg17
g5
sg18
I19
sg19
g5
sg20
F0.3684210526315789
sg21
g5
sg22
g5
sg23
I2217299
sg24
I4
sg25
I7
sg26
F0.006980802792321117
sg27
I2217299
sg28
g5
sg29
F4667.997894736842
sg30
I475
sg31
g5
ssS'ECHOLS JOHN B'
p125
(dp126
g3
g5
sg4
g5
sg6
I21530
sg7
I00
sg8
g5
sg9
S'john.echols@enron.com'
p127
sg11
I2234774
sg12
I0
sg13
F1.0974237976350518
sg14
g5
sg15
I0
sg16
g5
sg17
g5
sg18
g5
sg19
I53775
sg20
I0
sg21
g5
sg22
I200000
sg23
I1008941
sg24
g5
sg25
g5
sg26
I0
sg27
I407503
sg28
I182245
sg29
F0.3747472443881197
sg30
I2692324
sg31
I601438
ssS'MENDELSOHN JOHN'
p128
(dp129
g3
g5
sg4
g5
sg6
I148
sg7
I00
sg8
I-103750
sg9
g5
sg11
g5
sg12
I0
sg13
I0
sg14
g5
sg15
I0
sg16
g5
sg17
g5
sg18
g5
sg19
g5
sg20
I0
sg21
I103750
sg22
g5
sg23
g5
sg24
g5
sg25
g5
sg26
I0
sg27
g5
sg28
g5
sg29
I0
sg30
I148
sg31
g5
ssS'HICKERSON GARY J'
p130
(dp131
g3
I1320
sg4
g5
sg6
I98849
sg7
I00
sg8
g5
sg9
S'gary.hickerson@enron.com'
p132
sg11
I69223
sg12
F0.0009182736455463729
sg13
F8.02689481934765
sg14
g5
sg15
F0.0011223344556677889
sg16
I900
sg17
g5
sg18
I27
sg19
I1936
sg20
F0.037037037037037035
sg21
g5
sg22
I1700000
sg23
I441096
sg24
I40
sg25
I1
sg26
F0.030303030303030304
sg27
I441096
sg28
I211788
sg29
F0.21188243228443132
sg30
I2081796
sg31
g5
ssS'CLINE KENNETH W'
p133
(dp134
g3
g5
sg4
g5
sg6
g5
sg7
I00
sg8
g5
sg9
g5
sg11
g5
sg12
I0
sg13
I0
sg14
I-472568
sg15
I0
sg16
g5
sg17
g5
sg18
g5
sg19
g5
sg20
I0
sg21
g5
sg22
g5
sg23
I189518
sg24
g5
sg25
g5
sg26
I0
sg27
I662086
sg28
g5
sg29
I0
sg30
g5
sg31
g5
ssS'LEWIS RICHARD'
p135
(dp136
g3
I952
sg4
g5
sg6
g5
sg7
I00
sg8
g5
sg9
S'richard.lewis@enron.com'
p137
sg11
g5
sg12
F0.00011033825294823813
sg13
I0
sg14
g5
sg15
F0.0
sg16
I739
sg17
g5
sg18
I26
sg19
g5
sg20
F0.0
sg21
g5
sg22
g5
sg23
I850477
sg24
I10
sg25
I0
sg26
F0.01050420168067227
sg27
g5
sg28
g5
sg29
I0
sg30
g5
sg31
I850477
ssS'HAYES ROBERT E'
p138
(dp139
g3
I504
sg4
I7961
sg6
g5
sg7
I00
sg8
g5
sg9
S'robert.hayes@enron.com'
p140
sg11
g5
sg12
F0.0010078105316200553
sg13
I0
sg14
g5
sg15
F0.0
sg16
I50
sg17
g5
sg18
I12
sg19
g5
sg20
F0.0
sg21
g5
sg22
g5
sg23
I151418
sg24
I16
sg25
I0
sg26
F0.031746031746031744
sg27
I151418
sg28
g5
sg29
F19.019972365280744
sg30
I7961
sg31
g5
ssS'MCCARTY DANNY J'
p141
(dp142
g3
I1433
sg4
g5
sg6
g5
sg7
I00
sg8
g5
sg9
S'danny.mccarty@enron.com'
p143
sg11
g5
sg12
F0.000304360042834415
sg13
I0
sg14
g5
sg15
F0.00016228760609552248
sg16
I508
sg17
g5
sg18
I215
sg19
g5
sg20
F0.009302325581395349
sg21
g5
sg22
g5
sg23
I758931
sg24
I25
sg25
I2
sg26
F0.017445917655268667
sg27
I94556
sg28
g5
sg29
I0
sg30
g5
sg31
I664375
ssS'KOPPER MICHAEL J'
p144
(dp145
g3
g5
sg4
g5
sg6
I118134
sg7
I01
sg8
g5
sg9
S'michael.kopper@enron.com'
p146
sg11
I602671
sg12
I0
sg13
F3.5665723011078665
sg14
g5
sg15
I0
sg16
g5
sg17
g5
sg18
g5
sg19
I907502
sg20
I0
sg21
g5
sg22
I800000
sg23
I985032
sg24
g5
sg25
g5
sg26
I0
sg27
I985032
sg28
I224305
sg29
F0.3713441694450602
sg30
I2652612
sg31
g5
ssS'LEFF DANIEL P'
p147
(dp148
g3
I2822
sg4
g5
sg6
g5
sg7
I00
sg8
g5
sg9
S'dan.leff@enron.com'
p149
sg11
I1387399
sg12
F0.0005636838428044107
sg13
F3.653021414011529
sg14
g5
sg15
F0.005276005984723207
sg16
I2672
sg17
g5
sg18
I63
sg19
I3083
sg20
F0.2222222222222222
sg21
g5
sg22
I1000000
sg23
I360528
sg24
I67
sg25
I14
sg26
F0.02374202693125443
sg27
I360528
sg28
I273746
sg29
F0.13532175174196803
sg30
I2664228
sg31
g5
ssS'LAVORATO JOHN J'
p150
(dp151
g3
I7259
sg4
g5
sg6
I49537
sg7
I00
sg8
g5
sg9
S'john.lavorato@enron.com'
p152
sg11
I2035380
sg12
F0.005290713594826615
sg13
F23.57878852184575
sg14
g5
sg15
F0.011564807297177678
sg16
I3962
sg17
g5
sg18
I2585
sg19
I1552
sg20
F0.15899419729206962
sg21
g5
sg22
I8000000
sg23
I5167144
sg24
I528
sg25
I411
sg26
F0.07273729163796666
sg27
I1008149
sg28
I339288
sg29
F0.4956133161361808
sg30
I10425757
sg31
I4158995
ssS'BERBERIAN DAVID'
p153
(dp154
g3
g5
sg4
g5
sg6
I11892
sg7
I00
sg8
g5
sg9
S'david.berberian@enron.com'
p155
sg11
g5
sg12
I0
sg13
I0
sg14
g5
sg15
I0
sg16
g5
sg17
g5
sg18
g5
sg19
g5
sg20
I0
sg21
g5
sg22
g5
sg23
I2493616
sg24
g5
sg25
g5
sg26
I0
sg27
I869220
sg28
I216582
sg29
F10.914222187207297
sg30
I228474
sg31
I1624396
ssS'DETMERING TIMOTHY J'
p156
(dp157
g3
g5
sg4
I875307
sg6
I52255
sg7
I00
sg8
I-775241
sg9
S'timothy.detmering@enron.com'
p158
sg11
I415657
sg12
I0
sg13
F2.019002375296912
sg14
I-315068
sg15
I0
sg16
g5
sg17
g5
sg18
g5
sg19
I1105
sg20
I0
sg21
g5
sg22
I425000
sg23
I2027865
sg24
g5
sg25
g5
sg26
I0
sg27
I315068
sg28
I210500
sg29
F1.6834580929666116
sg30
I1204583
sg31
I2027865
ssS'WAKEHAM JOHN'
p159
(dp160
g3
g5
sg4
g5
sg6
I103773
sg7
I00
sg8
g5
sg9
g5
sg11
g5
sg12
I0
sg13
I0
sg14
g5
sg15
I0
sg16
g5
sg17
g5
sg18
g5
sg19
g5
sg20
I0
sg21
I109298
sg22
g5
sg23
g5
sg24
g5
sg25
g5
sg26
I0
sg27
g5
sg28
g5
sg29
I0
sg30
I213071
sg31
g5
ssS'POWERS WILLIAM'
p161
(dp162
g3
I653
sg4
g5
sg6
g5
sg7
I00
sg8
I-17500
sg9
S'ken.powers@enron.com'
p163
sg11
g5
sg12
F0.0
sg13
I0
sg14
g5
sg15
F0.0
sg16
I12
sg17
g5
sg18
I26
sg19
g5
sg20
F0.0
sg21
I17500
sg22
g5
sg23
g5
sg24
I0
sg25
I0
sg26
F0.0
sg27
g5
sg28
g5
sg29
I0
sg30
g5
sg31
g5
ssS'GOLD JOSEPH'
p164
(dp165
g3
g5
sg4
g5
sg6
g5
sg7
I00
sg8
g5
sg9
S'joe.gold@enron.com'
p166
sg11
I304805
sg12
I0
sg13
F2.748460861917326
sg14
g5
sg15
I0
sg16
g5
sg17
g5
sg18
g5
sg19
I819288
sg20
I0
sg21
g5
sg22
I750000
sg23
I877611
sg24
g5
sg25
g5
sg26
I0
sg27
I441096
sg28
I272880
sg29
F0.4087666682347659
sg30
I2146973
sg31
I436515
ssS'BANNANTINE JAMES M'
p167
(dp168
g3
I566
sg4
g5
sg6
I56301
sg7
I00
sg8
I-5104
sg9
S'james.bannantine@enron.com'
p169
sg11
g5
sg12
F0.004747843024635094
sg13
I0
sg14
I-560222
sg15
F0.0
sg16
I465
sg17
g5
sg18
I29
sg19
I864523
sg20
F0.0
sg21
g5
sg22
g5
sg23
I5243487
sg24
I39
sg25
I0
sg26
F0.06890459363957598
sg27
I1757552
sg28
I477
sg29
F5.723099944662557
sg30
I916197
sg31
I4046157
ssS'DUNCAN JOHN H'
p170
(dp171
g3
g5
sg4
g5
sg6
g5
sg7
I00
sg8
I-25000
sg9
g5
sg11
g5
sg12
I0
sg13
I0
sg14
g5
sg15
I0
sg16
g5
sg17
g5
sg18
g5
sg19
g5
sg20
I0
sg21
I102492
sg22
g5
sg23
I371750
sg24
g5
sg25
g5
sg26
I0
sg27
g5
sg28
g5
sg29
F4.797269395550509
sg30
I77492
sg31
I371750
ssS'SHAPIRO RICHARD S'
p172
(dp173
g3
I15149
sg4
g5
sg6
I137767
sg7
I00
sg8
g5
sg9
S'richard.shapiro@enron.com'
p174
sg11
g5
sg12
F2.3861377319746042e-05
sg13
F2.4156743819590005
sg14
g5
sg15
F0.00026132733095422236
sg16
I4527
sg17
g5
sg18
I1215
sg19
I705
sg20
F0.053497942386831275
sg21
g5
sg22
I650000
sg23
I987001
sg24
I74
sg25
I65
sg26
F0.0048848108786058485
sg27
I379164
sg28
I269076
sg29
F0.9332919167735176
sg30
I1057548
sg31
I607837
ssS'SHERRIFF JOHN R'
p175
(dp176
g3
I3187
sg4
g5
sg6
g5
sg7
I00
sg8
g5
sg9
S'john.sherriff@enron.com'
p177
sg11
I554422
sg12
F7.718838169142782e-05
sg13
F3.4982974952189934
sg14
g5
sg15
F0.0021964229683087543
sg16
I2103
sg17
g5
sg18
I92
sg19
I1852186
sg20
F0.25
sg21
g5
sg22
I1500000
sg23
I3128982
sg24
I28
sg25
I23
sg26
F0.008785691873235017
sg27
I1293424
sg28
I428780
sg29
F0.7217305579108491
sg30
I4335388
sg31
I1835558
ssS'SHELBY REX'
p178
(dp179
g3
I225
sg4
g5
sg6
I22884
sg7
I01
sg8
I-4167
sg9
S'rex.shelby@enron.com'
p180
sg11
g5
sg12
F0.003338271604938271
sg13
F0.9440909348388437
sg14
g5
sg15
F0.02074074074074074
sg16
I91
sg17
g5
sg18
I39
sg19
I1573324
sg20
F0.358974358974359
sg21
g5
sg22
I200000
sg23
I2493616
sg24
I13
sg25
I14
sg26
F0.057777777777777775
sg27
I869220
sg28
I211844
sg29
F1.2443907709274733
sg30
I2003885
sg31
I1624396
ssS'LEMAISTRE CHARLES'
p181
(dp182
g3
g5
sg4
g5
sg6
g5
sg7
I00
sg8
I-25000
sg9
g5
sg11
g5
sg12
I0
sg13
I0
sg14
g5
sg15
I0
sg16
g5
sg17
g5
sg18
g5
sg19
g5
sg20
I0
sg21
I112492
sg22
g5
sg23
I412878
sg24
g5
sg25
g5
sg26
I0
sg27
g5
sg28
g5
sg29
F4.719037169112605
sg30
I87492
sg31
I412878
ssS'DEFFNER JOSEPH M'
p183
(dp184
g3
I714
sg4
g5
sg6
I41626
sg7
I00
sg8
g5
sg9
S'joseph.deffner@enron.com'
p185
sg11
I335349
sg12
F0.025941749248719097
sg13
F2.910911551952494
sg14
g5
sg15
F0.008706185176773414
sg16
I552
sg17
g5
sg18
I74
sg19
I25553
sg20
F0.05405405405405406
sg21
g5
sg22
I600000
sg23
I159211
sg24
I115
sg25
I4
sg26
F0.16106442577030813
sg27
I141833
sg28
I206121
sg29
F0.13172641519580955
sg30
I1208649
sg31
I17378
ssS'KISHKILL JOSEPH G'
p186
(dp187
g3
g5
sg4
g5
sg6
I116335
sg7
I00
sg8
I-51042
sg9
S'joe.kishkill@enron.com'
p188
sg11
g5
sg12
I0
sg13
I0
sg14
g5
sg15
I0
sg16
g5
sg17
g5
sg18
g5
sg19
I465357
sg20
I0
sg21
g5
sg22
g5
sg23
I1034346
sg24
g5
sg25
g5
sg26
I0
sg27
I1034346
sg28
I174246
sg29
F1.467373910477574
sg30
I704896
sg31
g5
ssS'WHALLEY LAWRENCE G'
p189
(dp190
g3
I6019
sg4
g5
sg6
I57838
sg7
I00
sg8
g5
sg9
S'greg.whalley@enron.com'
p191
sg11
I808346
sg12
F0.0009549424551665475
sg13
F5.878157550297435
sg14
g5
sg15
F0.0013339054624384892
sg16
I3920
sg17
g5
sg18
I556
sg19
I301026
sg20
F0.04316546762589928
sg21
g5
sg22
I3000000
sg23
I6079137
sg24
I186
sg25
I24
sg26
F0.03090214321315833
sg27
I2796177
sg28
I510364
sg29
F1.2996345969085683
sg30
I4677574
sg31
I3282960
ssS'MCCONNELL MICHAEL S'
p192
(dp193
g3
I3329
sg4
g5
sg6
I81364
sg7
I00
sg8
g5
sg9
S'mike.mcconnell@enron.com'
p194
sg11
I554422
sg12
F0.0007637444448284422
sg13
F3.013384907872605
sg14
g5
sg15
F0.001955277089976269
sg16
I2189
sg17
g5
sg18
I2742
sg19
I540
sg20
F0.07075127644055434
sg21
g5
sg22
I1100000
sg23
I3101279
sg24
I92
sg25
I194
sg26
F0.02763592670471613
sg27
I1478269
sg28
I365038
sg29
F1.475840929986428
sg30
I2101364
sg31
I1623010
ssS'PIRO JIM'
p195
(dp196
g3
I58
sg4
g5
sg6
g5
sg7
I00
sg8
g5
sg9
S'jim.piro@enron.com'
p197
sg11
g5
sg12
F0.0
sg13
I0
sg14
g5
sg15
F0.0
sg16
I3
sg17
g5
sg18
I16
sg19
g5
sg20
F0.0625
sg21
g5
sg22
g5
sg23
I47304
sg24
I0
sg25
I1
sg26
F0.0
sg27
I47304
sg28
g5
sg29
I0
sg30
g5
sg31
g5
ssS'DELAINEY DAVID W'
p198
(dp199
g3
I3093
sg4
g5
sg6
I86174
sg7
I01
sg8
g5
sg9
S'david.delainey@enron.com'
p200
sg11
I1294981
sg12
F0.00045533185130969056
sg13
F8.215509238340138
sg14
g5
sg15
F0.004234327253006267
sg16
I2097
sg17
g5
sg18
I3069
sg19
I1661
sg20
F0.198435972629521
sg21
g5
sg22
I3000000
sg23
I3614261
sg24
I66
sg25
I609
sg26
F0.02133850630455868
sg27
I1323148
sg28
I365163
sg29
F0.7612209321060602
sg30
I4747979
sg31
I2291113
ssS'SULLIVAN-SHAKLOVITZ COLLEEN'
p201
(dp202
g3
g5
sg4
I181993
sg6
g5
sg7
I00
sg8
g5
sg9
g5
sg11
I554422
sg12
I0
sg13
F0.6143298582741017
sg14
g5
sg15
I0
sg16
g5
sg17
g5
sg18
g5
sg19
I162
sg20
I0
sg21
g5
sg22
I100000
sg23
I1362375
sg24
g5
sg25
g5
sg26
I0
sg27
g5
sg28
I162779
sg29
F1.3632529348900693
sg30
I999356
sg31
I1362375
ssS'WROBEL BRUCE'
p203
(dp204
g3
g5
sg4
g5
sg6
g5
sg7
I00
sg8
g5
sg9
g5
sg11
g5
sg12
I0
sg13
I0
sg14
g5
sg15
I0
sg16
g5
sg17
g5
sg18
g5
sg19
g5
sg20
I0
sg21
g5
sg22
g5
sg23
I139130
sg24
g5
sg25
g5
sg26
I0
sg27
g5
sg28
g5
sg29
I0
sg30
g5
sg31
I139130
ssS'LINDHOLM TOD A'
p205
(dp206
g3
g5
sg4
I204075
sg6
I57727
sg7
I00
sg8
g5
sg9
S'tod.lindholm@enron.com'
p207
sg11
I175000
sg12
I0
sg13
F0.8458197473536415
sg14
g5
sg15
I0
sg16
g5
sg17
g5
sg18
g5
sg19
I2630
sg20
I0
sg21
g5
sg22
I200000
sg23
I3064208
sg24
g5
sg25
g5
sg26
I0
sg27
I514847
sg28
I236457
sg29
F3.498397628009942
sg30
I875889
sg31
I2549361
ssS'MEYER JEROME J'
p208
(dp209
g3
g5
sg4
g5
sg6
I2151
sg7
I00
sg8
I-38346
sg9
g5
sg11
g5
sg12
I0
sg13
I0
sg14
g5
sg15
I0
sg16
g5
sg17
g5
sg18
g5
sg19
g5
sg20
I0
sg21
I38346
sg22
g5
sg23
g5
sg24
g5
sg25
g5
sg26
I0
sg27
g5
sg28
g5
sg29
I0
sg30
I2151
sg31
g5
ssS'LAY KENNETH L'
p210
(dp211
g3
I4273
sg4
I202911
sg6
I99832
sg7
I01
sg8
I-300000
sg9
S'kenneth.lay@enron.com'
p212
sg11
I3600000
sg12
F0.0008285990618411812
sg13
F6.527896031132468
sg14
g5
sg15
F0.012793509634136828
sg16
I2411
sg17
I81525000
sg18
I36
sg19
I10359729
sg20
F0.4444444444444444
sg21
g5
sg22
I7000000
sg23
I49110078
sg24
I123
sg25
I16
sg26
F0.028785396676807865
sg27
I14761694
sg28
I1072321
sg29
F0.474219545803843
sg30
I103559793
sg31
I34348384
ssS'BUTTS ROBERT H'
p213
(dp214
g3
g5
sg4
g5
sg6
I9410
sg7
I00
sg8
I-75000
sg9
S'bob.butts@enron.com'
p215
sg11
I175000
sg12
I0
sg13
F2.8678933602532926
sg14
g5
sg15
I0
sg16
g5
sg17
g5
sg18
g5
sg19
I150656
sg20
I0
sg21
g5
sg22
I750000
sg23
I417619
sg24
g5
sg25
g5
sg26
I0
sg27
I417619
sg28
I261516
sg29
F0.32842474964257123
sg30
I1271582
sg31
g5
ssS'OLSON CINDY K'
p216
(dp217
g3
I1184
sg4
I77716
sg6
I63791
sg7
I00
sg8
g5
sg9
S'cindy.olson@enron.com'
p218
sg11
I100000
sg12
F0.00028533601168736307
sg13
F2.279094925823057
sg14
g5
sg15
F0.004872661122661123
sg16
I856
sg17
g5
sg18
I52
sg19
I972
sg20
F0.28846153846153844
sg21
g5
sg22
I750000
sg23
I2606763
sg24
I20
sg25
I15
sg26
F0.016891891891891893
sg27
I969729
sg28
I329078
sg29
F1.9724938084395907
sg30
I1321557
sg31
I1637034
ssS'MCDONALD REBECCA'
p219
(dp220
g3
I894
sg4
g5
sg6
g5
sg7
I00
sg8
g5
sg9
S'rebecca.mcdonald@enron.com'
p221
sg11
g5
sg12
F0.0036484843025088964
sg13
I0
sg14
g5
sg15
F0.004646360351058338
sg16
I720
sg17
g5
sg18
I13
sg19
g5
sg20
F0.07692307692307693
sg21
g5
sg22
g5
sg23
I1691366
sg24
I54
sg25
I1
sg26
F0.06040268456375839
sg27
I934065
sg28
g5
sg29
I0
sg30
g5
sg31
I757301
ssS'CUMBERLAND MICHAEL S'
p222
(dp223
g3
g5
sg4
g5
sg6
I22344
sg7
I00
sg8
g5
sg9
g5
sg11
I275000
sg12
I0
sg13
F1.7577163748857485
sg14
g5
sg15
I0
sg16
g5
sg17
g5
sg18
g5
sg19
I713
sg20
I0
sg21
g5
sg22
I325000
sg23
I207940
sg24
g5
sg25
g5
sg26
I0
sg27
I207940
sg28
I184899
sg29
F0.2573655001014907
sg30
I807956
sg31
g5
ssS'GAHN ROBERT S'
p224
(dp225
g3
g5
sg4
I73122
sg6
I50080
sg7
I00
sg8
I-1042
sg9
g5
sg11
g5
sg12
I0
sg13
F2.6554622724053165
sg14
g5
sg15
I0
sg16
g5
sg17
g5
sg18
g5
sg19
I76547
sg20
I0
sg21
g5
sg22
I509870
sg23
I318607
sg24
g5
sg25
g5
sg26
I0
sg27
I235370
sg28
I192008
sg29
F0.3537778221933521
sg30
I900585
sg31
I83237
ssS'MCCLELLAN GEORGE'
p226
(dp227
g3
I1744
sg4
g5
sg6
I228763
sg7
I00
sg8
I-125000
sg9
S'george.mcclellan@enron.com'
p228
sg11
g5
sg12
F0.0008890244928878041
sg13
F3.4166878627858153
sg14
g5
sg15
F0.0
sg16
I1469
sg17
g5
sg18
I49
sg19
I51587
sg20
F0.0
sg21
g5
sg22
I900000
sg23
I947861
sg24
I52
sg25
I0
sg26
F0.02981651376146789
sg27
I441096
sg28
I263413
sg29
F0.7187500710893466
sg30
I1318763
sg31
I506765
ssS'HERMANN ROBERT J'
p229
(dp230
g3
g5
sg4
g5
sg6
I48357
sg7
I00
sg8
I-280000
sg9
S'robert.hermann@enron.com'
p231
sg11
I150000
sg12
I0
sg13
F2.665011821231007
sg14
g5
sg15
I0
sg16
g5
sg17
g5
sg18
g5
sg19
I416441
sg20
I0
sg21
g5
sg22
I700000
sg23
I668132
sg24
g5
sg25
g5
sg26
I0
sg27
I480632
sg28
I262663
sg29
F0.5149534359799639
sg30
I1297461
sg31
I187500
ssS'SCRIMSHAW MATTHEW'
p232
(dp233
g3
g5
sg4
g5
sg6
g5
sg7
I00
sg8
g5
sg9
S'matthew.scrimshaw@enron.com'
p234
sg11
g5
sg12
I0
sg13
I0
sg14
g5
sg15
I0
sg16
g5
sg17
g5
sg18
g5
sg19
g5
sg20
I0
sg21
g5
sg22
g5
sg23
I759557
sg24
g5
sg25
g5
sg26
I0
sg27
g5
sg28
g5
sg29
I0
sg30
g5
sg31
I759557
ssS'GATHMANN WILLIAM D'
p235
(dp236
g3
g5
sg4
g5
sg6
g5
sg7
I00
sg8
g5
sg9
g5
sg11
g5
sg12
I0
sg13
I0
sg14
I-72419
sg15
I0
sg16
g5
sg17
g5
sg18
g5
sg19
g5
sg20
I0
sg21
g5
sg22
g5
sg23
I1945360
sg24
g5
sg25
g5
sg26
I0
sg27
I264013
sg28
g5
sg29
I0
sg30
g5
sg31
I1753766
ssS'HAEDICKE MARK E'
p237
(dp238
g3
I4009
sg4
I2157527
sg6
I76169
sg7
I00
sg8
I-934484
sg9
S'mark.haedicke@enron.com'
p239
sg11
I983346
sg12
F0.0020159181626822316
sg13
F3.073838957567658
sg14
I-329825
sg15
F0.0014110446240934713
sg16
I1847
sg17
g5
sg18
I1941
sg19
I52382
sg20
F0.03142709943328181
sg21
g5
sg22
I1150000
sg23
I803094
sg24
I180
sg25
I61
sg26
F0.04489897730107259
sg27
I524169
sg28
I374125
sg29
F0.20810584947390107
sg30
I3859065
sg31
I608750
ssS'BOWEN JR RAYMOND M'
p240
(dp241
g3
I1858
sg4
g5
sg6
I65907
sg7
I01
sg8
I-833
sg9
S'raymond.bowen@enron.com'
p242
sg11
I974293
sg12
F0.005677598167410355
sg13
F4.845639462887786
sg14
g5
sg15
F0.04186102140892238
sg16
I1593
sg17
g5
sg18
I27
sg19
I1621
sg20
F0.5555555555555556
sg21
g5
sg22
I1350000
sg23
I252055
sg24
I140
sg25
I15
sg26
F0.07534983853606028
sg27
I252055
sg28
I278601
sg29
F0.09441715559960728
sg30
I2669589
sg31
g5
ssS'GILLIS JOHN'
p243
(dp244
g3
g5
sg4
g5
sg6
g5
sg7
I00
sg8
g5
sg9
g5
sg11
g5
sg12
I0
sg13
I0
sg14
g5
sg15
I0
sg16
g5
sg17
g5
sg18
g5
sg19
g5
sg20
I0
sg21
g5
sg22
g5
sg23
I85641
sg24
g5
sg25
g5
sg26
I0
sg27
I75838
sg28
g5
sg29
I0
sg30
g5
sg31
I9803
ssS'FITZGERALD JAY L'
p245
(dp246
g3
I936
sg4
g5
sg6
I23870
sg7
I00
sg8
g5
sg9
S'jay.fitzgerald@enron.com'
p247
sg11
I556416
sg12
F1.1414274234787058e-06
sg13
F1.7574074724965731
sg14
g5
sg15
F0.0005341880341880342
sg16
I723
sg17
g5
sg18
I16
sg19
I285414
sg20
F0.5
sg21
g5
sg22
I350000
sg23
I1621236
sg24
I1
sg25
I8
sg26
F0.0010683760683760685
sg27
I956775
sg28
I199157
sg29
F1.145865624582555
sg30
I1414857
sg31
I664461
ssS'MORAN MICHAEL P'
p248
(dp249
g3
I672
sg4
g5
sg6
g5
sg7
I00
sg8
g5
sg9
S'michael.moran@enron.com'
p250
sg11
g5
sg12
F0.0
sg13
I0
sg14
g5
sg15
F0.0
sg16
I127
sg17
g5
sg18
I19
sg19
g5
sg20
F0.0
sg21
g5
sg22
g5
sg23
I221141
sg24
I0
sg25
I0
sg26
F0.0
sg27
I161602
sg28
g5
sg29
I0
sg30
g5
sg31
I59539
ssS'REDMOND BRIAN L'
p251
(dp252
g3
I1671
sg4
g5
sg6
I14689
sg7
I00
sg8
g5
sg9
S'brian.redmond@enron.com'
p253
sg11
g5
sg12
F0.014904157628227648
sg13
I0
sg14
g5
sg15
F0.027068084518712884
sg16
I1063
sg17
g5
sg18
I221
sg19
g5
sg20
F0.22171945701357465
sg21
g5
sg22
g5
sg23
I7890324
sg24
I204
sg25
I49
sg26
F0.12208258527827648
sg27
I381285
sg28
I96840
sg29
F70.74683714549579
sg30
I111529
sg31
I7509039
ssS'BAZELIDES PHILIP J'
p254
(dp255
g3
g5
sg4
I684694
sg6
g5
sg7
I00
sg8
g5
sg9
g5
sg11
I93750
sg12
I0
sg13
I0
sg14
g5
sg15
I0
sg16
g5
sg17
g5
sg18
g5
sg19
I874
sg20
I0
sg21
g5
sg22
g5
sg23
I1599641
sg24
g5
sg25
g5
sg26
I0
sg27
g5
sg28
I80818
sg29
F1.8597535738534372
sg30
I860136
sg31
I1599641
ssS'BELDEN TIMOTHY N'
p256
(dp257
g3
I7991
sg4
I2144013
sg6
I17355
sg7
I01
sg8
I-2334434
sg9
S'tim.belden@enron.com'
p258
sg11
g5
sg12
F0.0008140806511442504
sg13
F24.532820246823583
sg14
g5
sg15
F0.006366666632192621
sg16
I5521
sg17
g5
sg18
I484
sg19
I210698
sg20
F0.2231404958677686
sg21
g5
sg22
I5249999
sg23
I1110705
sg24
I228
sg25
I108
sg26
F0.028532098610937303
sg27
I157569
sg28
I213999
sg29
F0.20188653180966368
sg30
I5501630
sg31
I953136
ssS'DURAN WILLIAM D'
p259
(dp260
g3
I904
sg4
g5
sg6
I25785
sg7
I00
sg8
g5
sg9
S'w.duran@enron.com'
p261
sg11
I1105218
sg12
F0.013749118959981205
sg13
F3.559698517266911
sg14
g5
sg15
F0.0293141592920354
sg16
I599
sg17
g5
sg18
I12
sg19
I1568
sg20
F0.25
sg21
g5
sg22
I750000
sg23
I1640910
sg24
I106
sg25
I3
sg26
F0.1172566371681416
sg27
I189041
sg28
I210692
sg29
F0.7839005418812638
sg30
I2093263
sg31
I1451869
ssS'THORN TERENCE H'
p262
(dp263
g3
I266
sg4
I16586
sg6
I46145
sg7
I00
sg8
g5
sg9
S'terence.thorn@enron.com'
p264
sg11
I200000
sg12
F0.0
sg13
I0
sg14
g5
sg15
F0.0
sg16
I73
sg17
g5
sg18
I41
sg19
I426629
sg20
F0.0
sg21
g5
sg22
g5
sg23
I4817796
sg24
I0
sg25
I0
sg26
F0.0
sg27
I365320
sg28
I222093
sg29
F5.285841398294811
sg30
I911453
sg31
I4452476
ssS'FASTOW ANDREW S'
p265
(dp266
g3
g5
sg4
g5
sg6
I55921
sg7
I01
sg8
I-1386055
sg9
S'andrew.fastow@enron.com'
p267
sg11
I1736055
sg12
I0
sg13
F2.949865894558178
sg14
g5
sg15
I0
sg16
g5
sg17
g5
sg18
g5
sg19
I277464
sg20
I0
sg21
g5
sg22
I1300000
sg23
I1794412
sg24
g5
sg25
g5
sg26
I0
sg27
I1794412
sg28
I440698
sg29
F0.7402436302717358
sg30
I2424083
sg31
g5
ssS'FOY JOE'
p268
(dp269
g3
I57
sg4
I181755
sg6
g5
sg7
I00
sg8
g5
sg9
S'tracy.foy@enron.com'
p270
sg11
g5
sg12
F0.0
sg13
I0
sg14
g5
sg15
F0.0
sg16
I2
sg17
g5
sg18
I13
sg19
g5
sg20
F0.0
sg21
g5
sg22
g5
sg23
I343434
sg24
I0
sg25
I0
sg26
F0.0
sg27
g5
sg28
g5
sg29
F1.8895436164067014
sg30
I181755
sg31
I343434
ssS'CALGER CHRISTOPHER F'
p271
(dp272
g3
I2598
sg4
g5
sg6
I35818
sg7
I01
sg8
I-262500
sg9
S'christopher.calger@enron.com'
p273
sg11
I375304
sg12
F0.005867159021477408
sg13
F5.204234998272194
sg14
g5
sg15
F0.013298156701736378
sg16
I2188
sg17
g5
sg18
I144
sg19
I486
sg20
F0.1736111111111111
sg21
g5
sg22
I1250000
sg23
I126027
sg24
I199
sg25
I25
sg26
F0.07659738260200154
sg27
I126027
sg28
I240189
sg29
F0.07687868641252928
sg30
I1639297
sg31
g5
ssS'RICE KENNETH D'
p274
(dp275
g3
I905
sg4
g5
sg6
I46950
sg7
I01
sg8
I-3504386
sg9
S'ken.rice@enron.com'
p276
sg11
I1617011
sg12
F0.002153780409633406
sg13
F4.160366682832663
sg14
g5
sg15
F0.010313075506445672
sg16
I864
sg17
g5
sg18
I18
sg19
I174839
sg20
F0.2222222222222222
sg21
g5
sg22
I1750000
sg23
I22542539
sg24
I42
sg25
I4
sg26
F0.04640883977900553
sg27
I2748364
sg28
I420636
sg29
F44.63427185427185
sg30
I505050
sg31
I19794175
ssS'KAMINSKI WINCENTY J'
p277
(dp278
g3
I4607
sg4
g5
sg6
I83585
sg7
I00
sg8
g5
sg9
S'vince.kaminski@enron.com'
p279
sg11
I323466
sg12
F7.920111377214079e-05
sg13
F1.4540114357999425
sg14
g5
sg15
F0.00010591694250494188
sg16
I583
sg17
g5
sg18
I14368
sg19
I4669
sg20
F0.011901447661469933
sg21
g5
sg22
I400000
sg23
I976037
sg24
I41
sg25
I171
sg26
F0.008899500759713479
sg27
I126027
sg28
I275101
sg29
F0.8980660108702353
sg30
I1086821
sg31
I850010
ssS'LOCKHART EUGENE E'
p280
(dp281
g3
g5
sg4
g5
sg6
g5
sg7
I00
sg8
g5
sg9
g5
sg11
g5
sg12
I0
sg13
I0
sg14
g5
sg15
I0
sg16
g5
sg17
g5
sg18
g5
sg19
g5
sg20
I0
sg21
g5
sg22
g5
sg23
g5
sg24
g5
sg25
g5
sg26
I0
sg27
g5
sg28
g5
sg29
I0
sg30
g5
sg31
g5
ssS'COX DAVID'
p282
(dp283
g3
I102
sg4
g5
sg6
I27861
sg7
I00
sg8
I-41250
sg9
S'chip.cox@enron.com'
p284
sg11
g5
sg12
F0.0
sg13
F2.5454360331924857
sg14
g5
sg15
F0.0
sg16
I71
sg17
g5
sg18
I33
sg19
I494
sg20
F0.12121212121212122
sg21
g5
sg22
I800000
sg23
I495633
sg24
I0
sg25
I4
sg26
F0.0
sg27
I378082
sg28
I314288
sg29
F0.4500055838379216
sg30
I1101393
sg31
I117551
ssS'OVERDYKE JR JERE C'
p285
(dp286
g3
g5
sg4
g5
sg6
I18834
sg7
I00
sg8
g5
sg9
S'jere.overdyke@enron.com'
p287
sg11
I135836
sg12
I0
sg13
I0
sg14
g5
sg15
I0
sg16
g5
sg17
g5
sg18
g5
sg19
I176
sg20
I0
sg21
g5
sg22
g5
sg23
I7307594
sg24
g5
sg25
g5
sg26
I0
sg27
I2041016
sg28
I94941
sg29
F29.25530151689239
sg30
I249787
sg31
I5266578
ssS'PEREIRA PAULO V. FERRAZ'
p288
(dp289
g3
g5
sg4
g5
sg6
I27942
sg7
I00
sg8
I-101250
sg9
g5
sg11
g5
sg12
I0
sg13
I0
sg14
g5
sg15
I0
sg16
g5
sg17
g5
sg18
g5
sg19
g5
sg20
I0
sg21
I101250
sg22
g5
sg23
g5
sg24
g5
sg25
g5
sg26
I0
sg27
g5
sg28
g5
sg29
I0
sg30
I27942
sg31
g5
ssS'STABLER FRANK'
p290
(dp291
g3
g5
sg4
g5
sg6
I16514
sg7
I00
sg8
g5
sg9
S'frank.stabler@enron.com'
p292
sg11
g5
sg12
I0
sg13
F2.0876652387036434
sg14
g5
sg15
I0
sg16
g5
sg17
g5
sg18
g5
sg19
I356071
sg20
I0
sg21
g5
sg22
I500000
sg23
I511734
sg24
g5
sg25
g5
sg26
I0
sg27
I511734
sg28
I239502
sg29
F0.46015644459471244
sg30
I1112087
sg31
g5
ssS'SKILLING JEFFREY K'
p293
(dp294
g3
I3627
sg4
g5
sg6
I29336
sg7
I01
sg8
g5
sg9
S'jeff.skilling@enron.com'
p295
sg11
I1920000
sg12
F0.0005886677356033528
sg13
F5.03933380007163
sg14
g5
sg15
F0.006739576632049751
sg16
I2042
sg17
g5
sg18
I108
sg19
I22122
sg20
F0.2777777777777778
sg21
g5
sg22
I5600000
sg23
I26093672
sg24
I88
sg25
I30
sg26
F0.0242624758753791
sg27
I6843672
sg28
I1111258
sg29
F3.0052430598904767
sg30
I8682716
sg31
I19250000
ssS'BLAKE JR. NORMAN P'
p296
(dp297
g3
g5
sg4
g5
sg6
I1279
sg7
I00
sg8
I-113784
sg9
g5
sg11
g5
sg12
I0
sg13
I0
sg14
g5
sg15
I0
sg16
g5
sg17
g5
sg18
g5
sg19
g5
sg20
I0
sg21
I113784
sg22
g5
sg23
g5
sg24
g5
sg25
g5
sg26
I0
sg27
g5
sg28
g5
sg29
I0
sg30
I1279
sg31
g5
ssS'SHERRICK JEFFREY B'
p298
(dp299
g3
I613
sg4
g5
sg6
g5
sg7
I00
sg8
g5
sg9
S'jeffrey.sherrick@enron.com'
p300
sg11
g5
sg12
F0.004047699517522734
sg13
I0
sg14
g5
sg15
F0.045807504078303425
sg16
I583
sg17
g5
sg18
I25
sg19
g5
sg20
F0.72
sg21
g5
sg22
g5
sg23
I1832468
sg24
I39
sg25
I18
sg26
F0.0636215334420881
sg27
I405999
sg28
g5
sg29
I0
sg30
g5
sg31
I1426469
ssS'PRENTICE JAMES'
p301
(dp302
g3
g5
sg4
I564348
sg6
g5
sg7
I00
sg8
g5
sg9
S'james.prentice@enron.com'
p303
sg11
g5
sg12
I0
sg13
I0
sg14
g5
sg15
I0
sg16
g5
sg17
g5
sg18
g5
sg19
g5
sg20
I0
sg21
g5
sg22
g5
sg23
I1095040
sg24
g5
sg25
g5
sg26
I0
sg27
I208809
sg28
g5
sg29
F1.940363038408925
sg30
I564348
sg31
I886231
ssS'GRAY RODNEY'
p304
(dp305
g3
g5
sg4
I93585
sg6
g5
sg7
I00
sg8
g5
sg9
g5
sg11
I365625
sg12
I0
sg13
I0
sg14
g5
sg15
I0
sg16
g5
sg17
g5
sg18
g5
sg19
I680833
sg20
I0
sg21
g5
sg22
g5
sg23
g5
sg24
g5
sg25
g5
sg26
I0
sg27
g5
sg28
I6615
sg29
I0
sg30
I1146658
sg31
g5
ssS'PICKERING MARK R'
p306
(dp307
g3
I898
sg4
g5
sg6
I31653
sg7
I00
sg8
g5
sg9
S'mark.pickering@enron.com'
p308
sg11
g5
sg12
F6.0763587482204954e-05
sg13
F0.45798939601885086
sg14
g5
sg15
F0.0
sg16
I728
sg17
I400000
sg18
I67
sg19
g5
sg20
F0.0
sg21
g5
sg22
I300000
sg23
I28798
sg24
I7
sg25
I0
sg26
F0.0077951002227171495
sg27
g5
sg28
I655037
sg29
F0.020767439009439746
sg30
I1386690
sg31
I28798
ssS'THE TRAVEL AGENCY IN THE PARK'
p309
(dp310
g3
g5
sg4
g5
sg6
g5
sg7
I00
sg8
g5
sg9
g5
sg11
g5
sg12
I0
sg13
I0
sg14
g5
sg15
I0
sg16
g5
sg17
g5
sg18
g5
sg19
I362096
sg20
I0
sg21
g5
sg22
g5
sg23
g5
sg24
g5
sg25
g5
sg26
I0
sg27
g5
sg28
g5
sg29
I0
sg30
I362096
sg31
g5
ssS'NOLES JAMES L'
p311
(dp312
g3
g5
sg4
I774401
sg6
g5
sg7
I00
sg8
g5
sg9
g5
sg11
g5
sg12
I0
sg13
I0
sg14
I-94556
sg15
I0
sg16
g5
sg17
g5
sg18
g5
sg19
g5
sg20
I0
sg21
g5
sg22
g5
sg23
I368705
sg24
g5
sg25
g5
sg26
I0
sg27
I463261
sg28
g5
sg29
F0.47611637898194864
sg30
I774401
sg31
g5
ssS'KEAN STEVEN J'
p313
(dp314
g3
I12754
sg4
g5
sg6
I41953
sg7
I00
sg8
g5
sg9
S'steven.kean@enron.com'
p315
sg11
I300000
sg12
F0.00012049339635941254
sg13
F2.473178380463869
sg14
g5
sg15
F0.000628507032701367
sg16
I3639
sg17
g5
sg18
I6759
sg19
I1231
sg20
F0.05725699067909454
sg21
g5
sg22
I1000000
sg23
I6153642
sg24
I140
sg25
I387
sg26
F0.010976948408342482
sg27
I4131594
sg28
I404338
sg29
F3.521353093122719
sg30
I1747522
sg31
I2022048
ssS'FOWLER PEGGY'
p316
(dp317
g3
I517
sg4
g5
sg6
g5
sg7
I00
sg8
g5
sg9
S'kulvinder.fowler@enron.com'
p318
sg11
g5
sg12
F0.0
sg13
I0
sg14
g5
sg15
F0.0
sg16
I10
sg17
g5
sg18
I36
sg19
g5
sg20
F0.0
sg21
g5
sg22
g5
sg23
I1884748
sg24
I0
sg25
I0
sg26
F0.0
sg27
I560170
sg28
g5
sg29
I0
sg30
g5
sg31
I1324578
ssS'WASAFF GEORGE'
p319
(dp320
g3
I400
sg4
I831299
sg6
g5
sg7
I00
sg8
I-583325
sg9
S'george.wasaff@enron.com'
p321
sg11
I200000
sg12
F0.003025
sg13
F1.2500192310650933
sg14
g5
sg15
F0.012833333333333334
sg16
I337
sg17
g5
sg18
I30
sg19
I1425
sg20
F0.23333333333333334
sg21
g5
sg22
I325000
sg23
I2056427
sg24
I22
sg25
I7
sg26
F0.055
sg27
I388167
sg28
I259996
sg29
F1.9880480860793024
sg30
I1034395
sg31
I1668260
ssS'WHITE JR THOMAS E'
p322
(dp323
g3
g5
sg4
g5
sg6
I81353
sg7
I00
sg8
g5
sg9
S'thomas.white@enron.com'
p324
sg11
g5
sg12
I0
sg13
F1.417130908254945
sg14
g5
sg15
I0
sg16
g5
sg17
g5
sg18
g5
sg19
I1085463
sg20
I0
sg21
g5
sg22
I450000
sg23
I15144123
sg24
g5
sg25
g5
sg26
I0
sg27
I13847074
sg28
I317543
sg29
F7.829013642245313
sg30
I1934359
sg31
I1297049
ssS'CHRISTODOULOU DIOMEDES'
p325
(dp326
g3
g5
sg4
g5
sg6
g5
sg7
I00
sg8
g5
sg9
S'diomedes.christodoulou@enron.com'
p327
sg11
g5
sg12
I0
sg13
I0
sg14
g5
sg15
I0
sg16
g5
sg17
g5
sg18
g5
sg19
g5
sg20
I0
sg21
g5
sg22
g5
sg23
I6077885
sg24
g5
sg25
g5
sg26
I0
sg27
I950730
sg28
g5
sg29
I0
sg30
g5
sg31
I5127155
ssS'ALLEN PHILLIP K'
p328
(dp329
g3
I2902
sg4
I2869717
sg6
I13868
sg7
I00
sg8
I-3081055
sg9
S'phillip.allen@enron.com'
p330
sg11
I304805
sg12
F0.00026230157580432425
sg13
F20.672922185635414
sg14
I-126027
sg15
F0.0004796001186833682
sg16
I1407
sg17
g5
sg18
I2195
sg19
I152
sg20
F0.029612756264236904
sg21
g5
sg22
I4175000
sg23
I1729541
sg24
I47
sg25
I65
sg26
F0.016195727084769126
sg27
I126027
sg28
I201955
sg29
F0.38567585443183344
sg30
I4484442
sg31
I1729541
ssS'SHARP VICTORIA T'
p331
(dp332
g3
I3136
sg4
I187469
sg6
I116337
sg7
I00
sg8
g5
sg9
S'vicki.sharp@enron.com'
p333
sg11
I422158
sg12
F5.856934610578925e-05
sg13
F2.417931379107461
sg14
g5
sg15
F0.00033763505402160867
sg16
I2477
sg17
g5
sg18
I136
sg19
I2401
sg20
F0.04411764705882353
sg21
g5
sg22
I600000
sg23
I494136
sg24
I24
sg25
I6
sg26
F0.007653061224489796
sg27
I213063
sg28
I248146
sg29
F0.3134364428792441
sg30
I1576511
sg31
I281073
ssS'JAEDICKE ROBERT'
p334
(dp335
g3
g5
sg4
g5
sg6
g5
sg7
I00
sg8
I-25000
sg9
g5
sg11
g5
sg12
I0
sg13
I0
sg14
I-44093
sg15
I0
sg16
g5
sg17
g5
sg18
g5
sg19
g5
sg20
I0
sg21
I108750
sg22
g5
sg23
I431750
sg24
g5
sg25
g5
sg26
I0
sg27
I44093
sg28
g5
sg29
F5.155223880597015
sg30
I83750
sg31
I431750
ssS'WINOKUR JR. HERBERT S'
p336
(dp337
g3
g5
sg4
g5
sg6
I1413
sg7
I00
sg8
I-25000
sg9
g5
sg11
g5
sg12
I0
sg13
I0
sg14
g5
sg15
I0
sg16
g5
sg17
g5
sg18
g5
sg19
g5
sg20
I0
sg21
I108579
sg22
g5
sg23
g5
sg24
g5
sg25
g5
sg26
I0
sg27
g5
sg28
g5
sg29
I0
sg30
I84992
sg31
g5
ssS'BROWN MICHAEL'
p338
(dp339
g3
I1486
sg4
g5
sg6
I49288
sg7
I00
sg8
g5
sg9
S'michael.brown@enron.com'
p340
sg11
g5
sg12
F7.653306137679806e-05
sg13
I0
sg14
g5
sg15
F0.0002133736007615796
sg16
I761
sg17
g5
sg18
I41
sg19
g5
sg20
F0.024390243902439025
sg21
g5
sg22
g5
sg23
g5
sg24
I13
sg25
I1
sg26
F0.008748317631224764
sg27
g5
sg28
g5
sg29
I0
sg30
I49288
sg31
g5
ssS'BADUM JAMES P'
p341
(dp342
g3
g5
sg4
I178980
sg6
I3486
sg7
I00
sg8
g5
sg9
g5
sg11
g5
sg12
I0
sg13
I0
sg14
g5
sg15
I0
sg16
g5
sg17
g5
sg18
g5
sg19
g5
sg20
I0
sg21
g5
sg22
g5
sg23
I257817
sg24
g5
sg25
g5
sg26
I0
sg27
g5
sg28
g5
sg29
F1.412959126631811
sg30
I182466
sg31
I257817
ssS'HUGHES JAMES A'
p343
(dp344
g3
I719
sg4
g5
sg6
g5
sg7
I00
sg8
g5
sg9
S'james.hughes@enron.com'
p345
sg11
g5
sg12
F0.0023696178241685542
sg13
I0
sg14
g5
sg15
F0.007158635359568027
sg16
I589
sg17
g5
sg18
I34
sg19
g5
sg20
F0.14705882352941177
sg21
g5
sg22
g5
sg23
I1118394
sg24
I35
sg25
I5
sg26
F0.048678720445062586
sg27
I363428
sg28
g5
sg29
I0
sg30
g5
sg31
I754966
ssS'REYNOLDS LAWRENCE'
p346
(dp347
g3
g5
sg4
I51365
sg6
I8409
sg7
I00
sg8
I-200000
sg9
g5
sg11
I156250
sg12
I0
sg13
F1.3089176559902616
sg14
I-140264
sg15
I0
sg16
g5
sg17
g5
sg18
g5
sg19
I202052
sg20
I0
sg21
g5
sg22
I100000
sg23
I4221891
sg24
g5
sg25
g5
sg26
I0
sg27
I201483
sg28
I76399
sg29
F10.702556562519804
sg30
I394475
sg31
I4160672
ssS'DIMICHELE RICHARD G'
p348
(dp349
g3
g5
sg4
g5
sg6
I35812
sg7
I00
sg8
g5
sg9
S'richard.dimichele@enron.com'
p350
sg11
I694862
sg12
I0
sg13
F3.8053487982708494
sg14
g5
sg15
I0
sg16
g5
sg17
g5
sg18
g5
sg19
I374689
sg20
I0
sg21
g5
sg22
I1000000
sg23
I8317782
sg24
g5
sg25
g5
sg26
I0
sg27
I126027
sg28
I262788
sg29
F3.5123528862813225
sg30
I2368151
sg31
I8191755
ssS'BHATNAGAR SANJAY'
p351
(dp352
g3
I523
sg4
g5
sg6
g5
sg7
I00
sg8
g5
sg9
S'sanjay.bhatnagar@enron.com'
p353
sg11
g5
sg12
F0.0
sg13
I0
sg14
I15456290
sg15
F0.0
sg16
I463
sg17
g5
sg18
I29
sg19
I137864
sg20
F0.034482758620689655
sg21
I137864
sg22
g5
sS'total_stock_value'
p354
S'NaN'
p355
sg24
I0
sg25
I1
sg26
F0.0
sg27
I-2604490
sg28
g5
sg29
I0
sg30
I15456290
sg31
I2604490
ssS'CARTER REBECCA C'
p356
(dp357
g3
I312
sg4
g5
sg6
g5
sg7
I00
sg8
I-159792
sg9
S'rebecca.carter@enron.com'
p358
sg11
I75000
sg12
F0.008639464168310323
sg13
F1.14587351848103
sg14
I-307301
sg15
F0.043376068376068375
sg16
I196
sg17
g5
sg18
I15
sg19
I540
sg20
F0.4666666666666667
sg21
g5
sg22
I300000
sg23
g5
sg24
I29
sg25
I7
sg26
F0.09294871794871795
sg27
I307301
sg28
I261809
sg29
I0
sg30
I477557
sg31
g5
ssS'BUCHANAN HAROLD G'
p359
(dp360
g3
I1088
sg4
g5
sg6
I600
sg7
I00
sg8
g5
sg9
S'john.buchanan@enron.com'
p361
sg11
I304805
sg12
F0.0
sg13
F2.015990839337626
sg14
g5
sg15
F0.0
sg16
I23
sg17
g5
sg18
I125
sg19
I1215
sg20
F0.0
sg21
g5
sg22
I500000
sg23
I1014505
sg24
I0
sg25
I0
sg26
F0.0
sg27
I189041
sg28
I248017
sg29
F0.9619470964891238
sg30
I1054637
sg31
I825464
ssS'YEAP SOON'
p362
(dp363
g3
g5
sg4
g5
sg6
I55097
sg7
I00
sg8
g5
sg9
g5
sg11
g5
sg12
I0
sg13
I0
sg14
g5
sg15
I0
sg16
g5
sg17
g5
sg18
g5
sg19
g5
sg20
I0
sg21
g5
sg22
g5
sg23
I192758
sg24
g5
sg25
g5
sg26
I0
sg27
g5
sg28
g5
sg29
F3.4985207906056592
sg30
I55097
sg31
I192758
ssS'MURRAY JULIA H'
p364
(dp365
g3
I2192
sg4
g5
sg6
I57580
sg7
I00
sg8
g5
sg9
S'julia.murray@enron.com'
p366
sg11
I125000
sg12
F2.518281474772231e-05
sg13
F1.744561330053558
sg14
g5
sg15
F0.00022303325223033252
sg16
I395
sg17
g5
sg18
I45
sg19
I330
sg20
F0.044444444444444446
sg21
g5
sg22
I400000
sg23
I597461
sg24
I11
sg25
I2
sg26
F0.005018248175182482
sg27
I196983
sg28
I229284
sg29
F0.7356136588056548
sg30
I812194
sg31
I400478
ssS'GARLAND C KEVIN'
p367
(dp368
g3
I209
sg4
g5
sg6
I48405
sg7
I00
sg8
g5
sg9
S'kevin.garland@enron.com'
p369
sg11
I375304
sg12
F0.00228932487809345
sg13
F3.6646460814155017
sg14
g5
sg15
F0.0293605915615485
sg16
I178
sg17
g5
sg18
I44
sg19
I60814
sg20
F0.6136363636363636
sg21
g5
sg22
I850000
sg23
I896153
sg24
I10
sg25
I27
sg26
F0.04784688995215311
sg27
I259907
sg28
I231946
sg29
F0.5720847332440029
sg30
I1566469
sg31
I636246
ssS'DODSON KEITH'
p370
(dp371
g3
I176
sg4
g5
sg6
I28164
sg7
I00
sg8
g5
sg9
S'keith.dodson@enron.com'
p372
sg11
g5
sg12
F0.0032283057851239666
sg13
F0.3167377818400655
sg14
g5
sg15
F0.012175324675324674
sg16
I114
sg17
g5
sg18
I14
sg19
I774
sg20
F0.21428571428571427
sg21
g5
sg22
I70000
sg23
g5
sg24
I10
sg25
I3
sg26
F0.056818181818181816
sg27
g5
sg28
I221003
sg29
I0
sg30
I319941
sg31
g5
ssS'YEAGER F SCOTT'
p373
(dp374
g3
g5
sg4
g5
sg6
I53947
sg7
I01
sg8
g5
sg9
S'scott.yeager@enron.com'
p375
sg11
g5
sg12
I0
sg13
I0
sg14
g5
sg15
I0
sg16
g5
sg17
g5
sg18
g5
sg19
I147950
sg20
I0
sg21
g5
sg22
g5
sg23
I11884758
sg24
g5
sg25
g5
sg26
I0
sg27
I3576206
sg28
I158403
sg29
F32.98572855953372
sg30
I360300
sg31
I8308552
ssS'HIRKO JOSEPH'
p376
(dp377
g3
g5
sg4
I10259
sg6
I77978
sg7
I01
sg8
g5
sg9
S'joe.hirko@enron.com'
p378
sg11
g5
sg12
I0
sg13
I0
sg14
g5
sg15
I0
sg16
g5
sg17
g5
sg18
g5
sg19
I2856
sg20
I0
sg21
g5
sg22
g5
sg23
I30766064
sg24
g5
sg25
g5
sg26
I0
sg27
g5
sg28
g5
sg29
F337.7434490026676
sg30
I91093
sg31
I30766064
ssS'DIETRICH JANET R'
p379
(dp380
g3
I2572
sg4
g5
sg6
I3475
sg7
I00
sg8
g5
sg9
S'janet.dietrich@enron.com'
p381
sg11
I556416
sg12
F0.014062345053440692
sg13
F2.3990403838464616
sg14
g5
sg15
F0.026352168653879383
sg16
I1902
sg17
g5
sg18
I63
sg19
I473
sg20
F0.2222222222222222
sg21
g5
sg22
I600000
sg23
I1865087
sg24
I305
sg25
I14
sg26
F0.11858475894245724
sg27
I315068
sg28
I250100
sg29
F1.3223215906254964
sg30
I1410464
sg31
I1550019
ssS'DERRICK JR. JAMES V'
p382
(dp383
g3
I2181
sg4
g5
sg6
I51124
sg7
I00
sg8
I-1284000
sg9
S'james.derrick@enron.com'
p384
sg11
I484000
sg12
F0.0008610901409593629
sg13
F1.6247778624016247
sg14
I-1787380
sg15
F0.000645639988116189
sg16
I1401
sg17
g5
sg18
I909
sg19
I7482
sg20
F0.022002200220022004
sg21
g5
sg22
I800000
sg23
I8831913
sg24
I64
sg25
I20
sg26
F0.029344337459880788
sg27
I1787380
sg28
I492375
sg29
F16.02943295685332
sg30
I550981
sg31
I8831913
ssS'FREVERT MARK A'
p385
(dp386
g3
I3275
sg4
I6426990
sg6
I86987
sg7
I00
sg8
I-3367011
sg9
S'mark.frevert@enron.com'
p387
sg11
I1617011
sg12
F0.005460194627352719
sg13
F1.885134956811558
sg14
g5
sg15
F0.021112322791712105
sg16
I2979
sg17
I2000000
sg18
I21
sg19
I7427621
sg20
F0.2857142857142857
sg21
g5
sg22
I2000000
sg23
I14622185
sg24
I242
sg25
I6
sg26
F0.07389312977099237
sg27
I4188667
sg28
I1060932
sg29
F0.8475385928904341
sg30
I17252530
sg31
I10433518
ssS'PAI LOU L'
p388
(dp389
g3
g5
sg4
g5
sg6
I32047
sg7
I00
sg8
g5
sg9
S'lou.pai@enron.com'
p390
sg11
g5
sg12
I0
sg13
F3.8185574253758414
sg14
g5
sg15
I0
sg16
g5
sg17
g5
sg18
g5
sg19
I1829457
sg20
I0
sg21
g5
sg22
I1000000
sg23
I23817930
sg24
g5
sg25
g5
sg26
I0
sg27
I8453763
sg28
I261879
sg29
F7.625683433635901
sg30
I3123383
sg31
I15364167
ssS'BAY FRANKLIN R'
p391
(dp392
g3
g5
sg4
I260455
sg6
I129142
sg7
I00
sg8
I-201641
sg9
S'frank.bay@enron.com'
p393
sg11
g5
sg12
I0
sg13
F1.6689545251615756
sg14
I-82782
sg15
I0
sg16
g5
sg17
g5
sg18
g5
sg19
I69
sg20
I0
sg21
g5
sg22
I400000
sg23
I63014
sg24
g5
sg25
g5
sg26
I0
sg27
I145796
sg28
I239671
sg29
F0.0761318165123427
sg30
I827696
sg31
g5
ssS'HAYSLETT RODERICK J'
p394
(dp395
g3
I2649
sg4
g5
sg6
g5
sg7
I00
sg8
g5
sg9
S'rod.hayslett@enron.com'
p396
sg11
g5
sg12
F0.00017457102910405447
sg13
I0
sg14
g5
sg15
F0.0004732104195953233
sg16
I571
sg17
g5
sg18
I1061
sg19
g5
sg20
F0.03581526861451461
sg21
g5
sg22
g5
sg23
I346663
sg24
I35
sg25
I38
sg26
F0.01321253303133258
sg27
I346663
sg28
g5
sg29
I0
sg30
g5
sg31
g5
ssS'FUGH JOHN L'
p397
(dp398
g3
g5
sg4
I50591
sg6
g5
sg7
I00
sg8
g5
sg9
g5
sg11
g5
sg12
I0
sg13
I0
sg14
g5
sg15
I0
sg16
g5
sg17
g5
sg18
g5
sg19
g5
sg20
I0
sg21
g5
sg22
g5
sg23
I176378
sg24
g5
sg25
g5
sg26
I0
sg27
g5
sg28
g5
sg29
F3.4863513273111817
sg30
I50591
sg31
I176378
ssS'FALLON JAMES B'
p399
(dp400
g3
I1755
sg4
g5
sg6
I95924
sg7
I00
sg8
g5
sg9
S'jim.fallon@enron.com'
p401
sg11
I374347
sg12
F0.0005727226240046754
sg13
F8.207808580771403
sg14
g5
sg15
F0.011806267806267808
sg16
I1604
sg17
g5
sg18
I75
sg19
I401481
sg20
F0.49333333333333335
sg21
g5
sg22
I2500000
sg23
I2332399
sg24
I42
sg25
I37
sg26
F0.023931623931623933
sg27
I1392142
sg28
I304588
sg29
F0.6344350631334424
sg30
I3676340
sg31
I940257
ssS'KOENIG MARK E'
p402
(dp403
g3
I2374
sg4
g5
sg6
I127017
sg7
I01
sg8
g5
sg9
S'mark.koenig@enron.com'
p404
sg11
I300000
sg12
F0.0004984140885995363
sg13
F2.2584579249288588
sg14
g5
sg15
F0.005489800709876117
sg16
I2271
sg17
g5
sg18
I61
sg19
I150458
sg20
F0.2459016393442623
sg21
g5
sg22
I700000
sg23
I1920055
sg24
I53
sg25
I15
sg26
F0.02232518955349621
sg27
I1248318
sg28
I309946
sg29
F1.2095436560307569
sg30
I1587421
sg31
I671737
ssS'SAVAGE FRANK'
p405
(dp406
g3
g5
sg4
g5
sg6
g5
sg7
I00
sg8
I-121284
sg9
g5
sg11
g5
sg12
I0
sg13
I0
sg14
g5
sg15
I0
sg16
g5
sg17
g5
sg18
g5
sg19
g5
sg20
I0
sg21
I125034
sg22
g5
sg23
g5
sg24
g5
sg25
g5
sg26
I0
sg27
g5
sg28
g5
sg29
I0
sg30
I3750
sg31
g5
ssS'IZZO LAWRENCE L'
p407
(dp408
g3
I496
sg4
g5
sg6
I28093
sg7
I00
sg8
g5
sg9
S'larry.izzo@enron.com'
p409
sg11
I312500
sg12
F0.00318678459937565
sg13
I0
sg14
g5
sg15
F0.014855687606112052
sg16
I437
sg17
g5
sg18
I19
sg19
I1553729
sg20
F0.2631578947368421
sg21
g5
sg22
g5
sg23
I5819980
sg24
I28
sg25
I5
sg26
F0.056451612903225805
sg27
I3654808
sg28
I85274
sg29
F2.9399837138486844
sg30
I1979596
sg31
I2165172
ssS'TILNEY ELIZABETH A'
p410
(dp411
g3
I460
sg4
g5
sg6
g5
sg7
I00
sg8
I-575000
sg9
S'elizabeth.tilney@enron.com'
p412
sg11
I275000
sg12
F0.00047258979206049145
sg13
F1.2129151201998885
sg14
g5
sg15
F0.012585812356979404
sg16
I379
sg17
g5
sg18
I19
sg19
I152055
sg20
F0.5789473684210527
sg21
g5
sg22
I300000
sg23
I1168042
sg24
I10
sg25
I11
sg26
F0.021739130434782608
sg27
I576792
sg28
I247338
sg29
F2.924542993993385
sg30
I399393
sg31
I591250
ssS'MARTIN AMANDA K'
p413
(dp414
g3
I1522
sg4
I85430
sg6
I8211
sg7
I00
sg8
g5
sg9
S'a..martin@enron.com'
p415
sg11
I5145434
sg12
F2.762807772468966e-05
sg13
I0
sg14
g5
sg15
F0.0
sg16
I477
sg17
g5
sg18
I230
sg19
I2818454
sg20
F0.0
sg21
g5
sg22
g5
sg23
I2070306
sg24
I8
sg25
I0
sg26
F0.005256241787122208
sg27
g5
sg28
I349487
sg29
F0.24625931483893929
sg30
I8407016
sg31
I2070306
ssS'BUY RICHARD B'
p416
(dp417
g3
I3523
sg4
I649584
sg6
g5
sg7
I00
sg8
I-694862
sg9
S'rick.buy@enron.com'
p418
sg11
I769862
sg12
F0.001960757614956223
sg13
F2.722767784211577
sg14
g5
sg15
F0.0029856708823498487
sg16
I2333
sg17
g5
sg18
I1053
sg19
I400572
sg20
F0.06742640075973409
sg21
g5
sg22
I900000
sg23
I3444470
sg24
I156
sg25
I71
sg26
F0.04428044280442804
sg27
I901657
sg28
I330546
sg29
F1.4621840962906174
sg30
I2355702
sg31
I2542813
ssS'GRAMM WENDY L'
p419
(dp420
g3
g5
sg4
g5
sg6
g5
sg7
I00
sg8
g5
sg9
g5
sg11
g5
sg12
I0
sg13
I0
sg14
g5
sg15
I0
sg16
g5
sg17
g5
sg18
g5
sg19
g5
sg20
I0
sg21
I119292
sg22
g5
sg23
g5
sg24
g5
sg25
g5
sg26
I0
sg27
g5
sg28
g5
sg29
I0
sg30
I119292
sg31
g5
ssS'CAUSEY RICHARD A'
p421
(dp422
g3
I1892
sg4
g5
sg6
I30674
sg7
I01
sg8
I-235000
sg9
S'richard.causey@enron.com'
p423
sg11
I350000
sg12
F0.0009397530047512839
sg13
F2.4085416521150607
sg14
g5
sg15
F0.0075074427233895675
sg16
I1585
sg17
g5
sg18
I49
sg19
I307895
sg20
F0.24489795918367346
sg21
g5
sg22
I1000000
sg23
I2502063
sg24
I58
sg25
I12
sg26
F0.0306553911205074
sg27
I2502063
sg28
I415189
sg29
F1.338890856922084
sg30
I1868758
sg31
g5
ssS'TAYLOR MITCHELL S'
p424
(dp425
g3
I533
sg4
I227449
sg6
g5
sg7
I00
sg8
g5
sg9
S'mitchell.taylor@enron.com'
p426
sg11
g5
sg12
F0.0
sg13
F2.2623240100447184
sg14
g5
sg15
F0.0
sg16
I300
sg17
g5
sg18
I29
sg19
g5
sg20
F0.0
sg21
g5
sg22
I600000
sg23
I3745048
sg24
I0
sg25
I0
sg26
F0.0
sg27
I563798
sg28
I265214
sg29
F3.4274501836339293
sg30
I1092663
sg31
I3181250
ssS'DONAHUE JR JEFFREY M'
p427
(dp428
g3
I865
sg4
g5
sg6
I96268
sg7
I00
sg8
I-300000
sg9
S'jeff.donahue@enron.com'
p429
sg11
g5
sg12
F0.04723712786929066
sg13
F2.8714900520816506
sg14
g5
sg15
F0.10867052023121387
sg16
I772
sg17
g5
sg18
I22
sg19
I891
sg20
F0.5
sg21
g5
sg22
I800000
sg23
I1080988
sg24
I188
sg25
I11
sg26
F0.21734104046242775
sg27
I315068
sg28
I278601
sg29
F1.2343427423038276
sg30
I875760
sg31
I765920
ssS'GLISAN JR BEN F'
p430
(dp431
g3
I873
sg4
g5
sg6
I125978
sg7
I01
sg8
g5
sg9
S'ben.glisan@enron.com'
p432
sg11
I71023
sg12
F0.00354795579226089
sg13
F2.1820165469588146
sg14
g5
sg15
F0.02233676975945017
sg16
I874
sg17
g5
sg18
I16
sg19
I200308
sg20
F0.375
sg21
g5
sg22
I600000
sg23
I778546
sg24
I52
sg25
I6
sg26
F0.05956471935853379
sg27
I393818
sg28
I274975
sg29
F0.6119278400105637
sg30
I1272284
sg31
I384728
ss.